; Function Attrs: mustprogress nofree norecurse nosync nounwind willreturn memory(read, inaccessiblemem: none) uwtable
define range(i32 0, 2) i32 @H5T_is_named(ptr nocapture noundef readonly %0) local_unnamed_addr #5 {
  %2 = getelementptr inbounds i8, ptr %0, i64 96
  %3 = load ptr, ptr %2, align 8
  %.not = icmp eq ptr %3, null
  br i1 %.not, label %4, label %11

4:                                                ; preds = %1
  %5 = getelementptr inbounds i8, ptr %0, i64 40
  %6 = load ptr, ptr %5, align 8
  %7 = getelementptr inbounds i8, ptr %6, i64 8
  %8 = load i32, ptr %7, align 8
  %9 = add i32 %8, -3
  %narrow = icmp ult i32 %9, 2
  %10 = zext i1 %narrow to i32
  br label %11

11:                                               ; preds = %1, %4
  %.0 = phi i32 [ %10, %4 ], [ 1, %1 ]
  ret i32 %.0
}